Certificate:
    Data:
        Version: 3 (0x2)
        Serial Number: 1 (0x1)
    Signature Algorithm: sha1WithRSAEncryption
        Issuer: C=SE, ST=Skane, L=Loddekopinge, O=OpenProducts, O=., OU=., CN=OPI CA
        Validity
            Not Before: Jul 27 18:06:14 2014 GMT
            Not After : Jul 24 18:06:14 2024 GMT
        Subject: C=SE, ST=Skane, L=Loddekopinge, O=OpenProducts, O=., OU=OPI user certificate, CN=default.op-i.me
        Subject Public Key Info:
            Public Key Algorithm: rsaEncryption
                Public-Key: (2048 bit)
                Modulus:
                    00:d2:1f:27:a8:26:a5:e1:12:f2:5a:7a:df:8b:62:
                    10:31:cb:3b:d4:bd:d8:fc:41:ea:11:74:aa:2f:c3:
                    39:bb:70:86:93:88:72:e8:8b:cb:c0:ec:d6:9c:90:
                    a5:6b:a6:d5:ac:83:14:ca:92:88:22:16:05:5f:ab:
                    c4:8f:0b:3f:ef:01:61:47:f5:63:39:08:77:3d:c8:
                    7c:19:97:e4:b5:59:21:f1:72:e3:49:35:61:21:e5:
                    5b:e8:66:e9:ee:15:05:ab:a4:4e:59:b6:14:d0:da:
                    d5:f8:a7:f9:92:31:29:fc:f4:9c:b8:82:c4:af:61:
                    c6:9b:63:76:e3:6e:36:95:fe:35:f4:a6:b6:c7:3a:
                    aa:81:fa:1e:4c:d5:52:1f:8b:d9:c3:22:ee:14:79:
                    f0:e3:4c:26:95:7f:da:ae:c4:da:f0:04:0f:dd:7b:
                    b1:cd:af:6a:49:91:ad:92:a8:17:e0:ae:2f:07:28:
                    24:a8:79:ac:21:66:a2:ff:1b:f2:86:6a:be:7e:f7:
                    d3:b3:d0:6a:9d:a6:55:60:b4:4e:c2:e1:18:93:77:
                    88:d1:69:32:5b:6d:ac:01:9e:64:77:4f:0c:d9:85:
                    3e:53:93:eb:22:dd:eb:9f:87:c4:b1:1e:15:af:fd:
                    26:75:12:df:a3:fb:8b:5e:2a:b0:9d:3e:f8:9b:29:
                    7e:ef
                Exponent: 65537 (0x10001)
        X509v3 extensions:
            X509v3 Basic Constraints: 
                CA:FALSE
            Netscape Comment: 
                OpenSSL Generated Certificate
            X509v3 Subject Key Identifier: 
                F9:EF:8D:AC:A3:74:D1:94:E6:D1:94:D2:E2:98:B6:90:9F:A7:C7:84
            X509v3 Authority Key Identifier: 
                keyid:DE:26:F4:8D:AA:0C:DF:D5:19:31:D4:3B:BF:AB:70:06:96:8D:95:C4
                DirName:/C=SE/ST=Skane/L=Loddekopinge/O=OpenProducts/O=./OU=./CN=ROOT CA
                serial:01

    Signature Algorithm: sha1WithRSAEncryption
         53:13:3d:a1:cd:81:19:e0:95:16:d2:55:76:f0:83:de:ad:6e:
         32:3f:bc:b2:8e:a1:07:c9:55:be:3d:1d:fc:8b:c2:51:b6:11:
         76:3d:8c:84:9d:65:5e:fe:65:89:68:ac:28:a5:fd:74:3d:02:
         cf:36:12:ef:73:18:77:62:b7:ea:53:c3:f3:d2:6d:7c:29:47:
         82:a8:b2:a7:75:f1:6f:78:e9:77:26:df:58:cd:a5:cb:33:5c:
         3d:e6:0c:b4:b0:b7:09:b1:64:0d:99:44:55:fd:82:7d:1b:ae:
         16:f3:30:00:51:7c:0d:b0:fc:77:69:4d:e3:40:3a:00:67:4f:
         c2:64:4e:ab:63:26:78:be:32:4c:16:7d:ca:53:74:f5:0e:ad:
         b9:b2:27:c7:67:37:05:3d:0a:f2:63:2f:3c:98:22:0a:54:d6:
         06:98:91:df:9b:b4:ce:91:69:8b:82:04:64:87:f1:ae:89:b7:
         6a:9b:34:e6:b8:39:95:95:5c:23:5f:b5:e8:ff:90:b8:4d:7b:
         11:73:bf:30:78:d2:8a:ad:ed:58:e2:5b:fd:9c:0a:f6:d3:31:
         e3:ea:82:62:dd:4d:4f:f1:70:e7:0a:a7:68:94:de:30:b5:38:
         dd:31:88:b3:d3:ca:60:75:6c:20:cd:60:5e:00:f6:fb:06:36:
         00:9a:a7:c2
-----BEGIN CERTIFICATE-----
MIIEfjCCA2agAwIBAgIBATANBgkqhkiG9w0BAQUFADB0MQswCQYDVQQGEwJTRTEO
MAwGA1UECBMFU2thbmUxFTATBgNVBAcTDExvZGRla29waW5nZTEVMBMGA1UEChMM
T3BlblByb2R1Y3RzMQowCAYDVQQKEwEuMQowCAYDVQQLEwEuMQ8wDQYDVQQDEwZP
UEkgQ0EwHhcNMTQwNzI3MTgwNjE0WhcNMjQwNzI0MTgwNjE0WjCBkDELMAkGA1UE
BhMCU0UxDjAMBgNVBAgTBVNrYW5lMRUwEwYDVQQHEwxMb2RkZWtvcGluZ2UxFTAT
BgNVBAoTDE9wZW5Qcm9kdWN0czEKMAgGA1UEChMBLjEdMBsGA1UECxMUT1BJIHVz
ZXIgY2VydGlmaWNhdGUxGDAWBgNVBAMTD2RlZmF1bHQub3AtaS5tZTCCASIwDQYJ
KoZIhvcNAQEBBQADggEPADCCAQoCggEBANIfJ6gmpeES8lp634tiEDHLO9S92PxB
6hF0qi/DObtwhpOIcuiLy8Ds1pyQpWum1ayDFMqSiCIWBV+rxI8LP+8BYUf1YzkI
dz3IfBmX5LVZIfFy40k1YSHlW+hm6e4VBaukTlm2FNDa1fin+ZIxKfz0nLiCxK9h
xptjduNuNpX+NfSmtsc6qoH6HkzVUh+L2cMi7hR58ONMJpV/2q7E2vAED917sc2v
akmRrZKoF+CuLwcoJKh5rCFmov8b8oZqvn7307PQap2mVWC0TsLhGJN3iNFpMltt
rAGeZHdPDNmFPlOT6yLd65+HxLEeFa/9JnUS36P7i14qsJ0++Jspfu8CAwEAAaOB
/TCB+jAJBgNVHRMEAjAAMCwGCWCGSAGG+EIBDQQfFh1PcGVuU1NMIEdlbmVyYXRl
ZCBDZXJ0aWZpY2F0ZTAdBgNVHQ4EFgQU+e+NrKN00ZTm0ZTS4pi2kJ+nx4QwgZ8G
A1UdIwSBlzCBlIAU3ib0jaoM39UZMdQ7v6twBpaNlcSheaR3MHUxCzAJBgNVBAYT
AlNFMQ4wDAYDVQQIEwVTa2FuZTEVMBMGA1UEBxMMTG9kZGVrb3BpbmdlMRUwEwYD
VQQKEwxPcGVuUHJvZHVjdHMxCjAIBgNVBAoTAS4xCjAIBgNVBAsTAS4xEDAOBgNV
BAMTB1JPT1QgQ0GCAQEwDQYJKoZIhvcNAQEFBQADggEBAFMTPaHNgRnglRbSVXbw
g96tbjI/vLKOoQfJVb49HfyLwlG2EXY9jISdZV7+ZYlorCil/XQ9As82Eu9zGHdi
t+pTw/PSbXwpR4Kosqd18W946Xcm31jNpcszXD3mDLSwtwmxZA2ZRFX9gn0brhbz
MABRfA2w/HdpTeNAOgBnT8JkTqtjJni+MkwWfcpTdPUOrbmyJ8dnNwU9CvJjLzyY
IgpU1gaYkd+btM6RaYuCBGSH8a6Jt2qbNOa4OZWVXCNftej/kLhNexFzvzB40oqt
7VjiW/2cCvbTMePqgmLdTU/xcOcKp2iU3jC1ON0xiLPTymB1bCDNYF4A9vsGNgCa
p8I=
-----END CERTIFICATE-----
